; Function Attrs: mustprogress nofree norecurse nosync nounwind willreturn memory(read, inaccessiblemem: none) uwtable
define noundef ptr @_ZNK18llama_adapter_cvec10tensor_forEi(ptr noundef nonnull readonly align 8 captures(none) dereferenceable(80) %0, i32 noundef %1) local_unnamed_addr #0 align 2 {
  %3 = icmp slt i32 %1, 0
  %4 = load i32, ptr %0, align 8
  %5 = icmp slt i32 %1, %4
  %or.cond = select i1 %3, i1 true, i1 %5
  %6 = getelementptr inbounds nuw i8, ptr %0, i64 4
  %7 = load i32, ptr %6, align 4
  %8 = icmp sgt i32 %1, %7
  %or.cond11 = select i1 %or.cond, i1 true, i1 %8
  br i1 %or.cond11, label %22, label %9

9:                                                ; preds = %2
  %10 = zext nneg i32 %1 to i64
  %11 = getelementptr inbounds nuw i8, ptr %0, i64 56
  %12 = getelementptr inbounds nuw i8, ptr %0, i64 64
  %13 = load ptr, ptr %12, align 8, !tbaa !3
  %14 = load ptr, ptr %11, align 8, !tbaa !10
  %15 = ptrtoint ptr %13 to i64
  %16 = ptrtoint ptr %14 to i64
  %17 = sub i64 %15, %16
  %18 = ashr exact i64 %17, 3
  %.not = icmp ugt i64 %18, %10
  br i1 %.not, label %19, label %22

19:                                               ; preds = %9
  %20 = getelementptr inbounds nuw ptr, ptr %14, i64 %10
  %21 = load ptr, ptr %20, align 8, !tbaa !11
  br label %22

22:                                               ; preds = %2, %9, %19
  %.0 = phi ptr [ %21, %19 ], [ null, %9 ], [ null, %2 ]
  ret ptr %.0
}